target datalayout = "e-m:e-p270:32:32-p271:32:32-p272:64:64-i64:64-i128:128-f80:128-n8:16:32:64-S128"
target triple = "x86_64-pc-linux-gnu"

%"class.Json::Value::CZString" = type <{ ptr, %union.anon.25, [4 x i8] }>
%union.anon.25 = type { i32 }

; Function Attrs: mustprogress nounwind uwtable
define dso_local noundef zeroext i1 @_ZNK4Json5Value8CZStringeqERKS1_(ptr noundef nonnull align 8 dereferenceable(12) %0, ptr noundef nonnull align 8 dereferenceable(12) %1) #0 align 2 {
  %3 = alloca i1, align 1
  %4 = alloca ptr, align 8
  %5 = alloca ptr, align 8
  %6 = alloca i32, align 4
  %7 = alloca i32, align 4
  %8 = alloca i32, align 4
  store ptr %0, ptr %4, align 8
  store ptr %1, ptr %5, align 8
  %9 = load ptr, ptr %4, align 8
  %10 = getelementptr inbounds %"class.Json::Value::CZString", ptr %9, i32 0, i32 0
  %11 = load ptr, ptr %10, align 8
  %12 = icmp ne ptr %11, null
  br i1 %12, label %20, label %13

13:                                               ; preds = %2
  %14 = getelementptr inbounds %"class.Json::Value::CZString", ptr %9, i32 0, i32 1
  %15 = load i32, ptr %14, align 8
  %16 = load ptr, ptr %5, align 8
  %17 = getelementptr inbounds %"class.Json::Value::CZString", ptr %16, i32 0, i32 1
  %18 = load i32, ptr %17, align 8
  %19 = icmp eq i32 %15, %18
  store i1 %19, ptr %3, align 1
  br label %43

20:                                               ; preds = %2
  %21 = getelementptr inbounds %"class.Json::Value::CZString", ptr %9, i32 0, i32 1
  %22 = load i32, ptr %21, align 8
  %23 = lshr i32 %22, 2
  store i32 %23, ptr %6, align 4
  %24 = load ptr, ptr %5, align 8
  %25 = getelementptr inbounds %"class.Json::Value::CZString", ptr %24, i32 0, i32 1
  %26 = load i32, ptr %25, align 8
  %27 = lshr i32 %26, 2
  store i32 %27, ptr %7, align 4
  %28 = load i32, ptr %6, align 4
  %29 = load i32, ptr %7, align 4
  %30 = icmp ne i32 %28, %29
  br i1 %30, label %31, label %32

31:                                               ; preds = %20
  store i1 false, ptr %3, align 1
  br label %43

32:                                               ; preds = %20
  %33 = getelementptr inbounds %"class.Json::Value::CZString", ptr %9, i32 0, i32 0
  %34 = load ptr, ptr %33, align 8
  %35 = load ptr, ptr %5, align 8
  %36 = getelementptr inbounds %"class.Json::Value::CZString", ptr %35, i32 0, i32 0
  %37 = load ptr, ptr %36, align 8
  %38 = load i32, ptr %6, align 4
  %39 = zext i32 %38 to i64
  %40 = call i32 @memcmp(ptr noundef %34, ptr noundef %37, i64 noundef %39) #21
  store i32 %40, ptr %8, align 4
  %41 = load i32, ptr %8, align 4
  %42 = icmp eq i32 %41, 0
  store i1 %42, ptr %3, align 1
  br label %43

43:                                               ; preds = %32, %31, %13
  %44 = load i1, ptr %3, align 1
  ret i1 %44
}