; Function Attrs: mustprogress nofree nounwind willreturn memory(read, inaccessiblemem: none) uwtable
define dso_local noundef zeroext i1 @_ZNK4Json5Value8CZStringeqERKS1_(ptr nocapture noundef nonnull readonly align 8 dereferenceable(12) %0, ptr nocapture noundef nonnull readonly align 8 dereferenceable(12) %1) local_unnamed_addr #22 align 2 {
  %3 = load ptr, ptr %0, align 8
  %.not = icmp eq ptr %3, null
  %4 = getelementptr inbounds i8, ptr %0, i64 8
  %5 = load i32, ptr %4, align 8
  br i1 %.not, label %6, label %10

6:                                                ; preds = %2
  %7 = getelementptr inbounds i8, ptr %1, i64 8
  %8 = load i32, ptr %7, align 8
  %9 = icmp eq i32 %5, %8
  br label %19

10:                                               ; preds = %2
  %11 = lshr i32 %5, 2
  %12 = getelementptr inbounds i8, ptr %1, i64 8
  %13 = load i32, ptr %12, align 8
  %14 = lshr i32 %13, 2
  %.not10 = icmp eq i32 %11, %14
  br i1 %.not10, label %15, label %19

15:                                               ; preds = %10
  %16 = load ptr, ptr %1, align 8
  %17 = zext nneg i32 %11 to i64
  %bcmp = tail call i32 @bcmp(ptr nonnull %3, ptr %16, i64 %17)
  %18 = icmp eq i32 %bcmp, 0
  br label %19

19:                                               ; preds = %10, %15, %6
  %.0 = phi i1 [ %18, %15 ], [ %9, %6 ], [ false, %10 ]
  ret i1 %.0
}